target datalayout = "e-m:e-p270:32:32-p271:32:32-p272:64:64-i64:64-i128:128-f80:128-n8:16:32:64-S128"
target triple = "x86_64-pc-linux-gnu"

%struct.PACKET = type { ptr, i64 }
%struct.ack_test_case = type { ptr, i64, ptr, i32 }

@.str.5 = private unnamed_addr constant [33 x i8] c"../openssl/test/quic_wire_test.c\00", align 1
@.str.8 = private unnamed_addr constant [2 x i8] c"1\00", align 1
@.str.15 = private unnamed_addr constant [23 x i8] c"PACKET_remaining(&pkt)\00", align 1
@.str.68 = private unnamed_addr constant [2 x i8] c"0\00", align 1
@.str.160 = private unnamed_addr constant [71 x i8] c"PACKET_buf_init(&pkt, (unsigned char *)c->input_buf, c->input_buf_len)\00", align 1
@.str.161 = private unnamed_addr constant [2 x i8] c"r\00", align 1

; Function Attrs: inlinehint nounwind uwtable
define internal i64 @PACKET_remaining(ptr noundef %0) #3 {
  %2 = alloca ptr, align 8
  store ptr %0, ptr %2, align 8, !tbaa !40
  %3 = load ptr, ptr %2, align 8, !tbaa !40
  %4 = getelementptr inbounds nuw %struct.PACKET, ptr %3, i32 0, i32 1
  %5 = load i64, ptr %4, align 8, !tbaa !43
  ret i64 %5
}

; Function Attrs: inlinehint nounwind uwtable
define internal i32 @PACKET_buf_init(ptr noundef %0, ptr noundef %1, i64 noundef %2) #3 {
  %4 = alloca i32, align 4
  %5 = alloca ptr, align 8
  %6 = alloca ptr, align 8
  %7 = alloca i64, align 8
  store ptr %0, ptr %5, align 8, !tbaa !40
  store ptr %1, ptr %6, align 8, !tbaa !39
  store i64 %2, ptr %7, align 8, !tbaa !19
  %8 = load i64, ptr %7, align 8, !tbaa !19
  %9 = icmp ugt i64 %8, 9223372036854775807
  br i1 %9, label %10, label %11

10:                                               ; preds = %3
  store i32 0, ptr %4, align 4
  br label %18

11:                                               ; preds = %3
  %12 = load ptr, ptr %6, align 8, !tbaa !39
  %13 = load ptr, ptr %5, align 8, !tbaa !40
  %14 = getelementptr inbounds nuw %struct.PACKET, ptr %13, i32 0, i32 0
  store ptr %12, ptr %14, align 8, !tbaa !41
  %15 = load i64, ptr %7, align 8, !tbaa !19
  %16 = load ptr, ptr %5, align 8, !tbaa !40
  %17 = getelementptr inbounds nuw %struct.PACKET, ptr %16, i32 0, i32 1
  store i64 %15, ptr %17, align 8, !tbaa !43
  store i32 1, ptr %4, align 4
  br label %18

18:                                               ; preds = %11, %10
  %19 = load i32, ptr %4, align 4
  ret i32 %19
}

; Function Attrs: nounwind uwtable
define internal i32 @test_wire_ack(i32 noundef %0) #0 {
  %2 = alloca i32, align 4
  %3 = alloca i32, align 4
  %4 = alloca i32, align 4
  %5 = alloca %struct.PACKET, align 8
  %6 = alloca ptr, align 8
  store i32 %0, ptr %2, align 4, !tbaa !4
  call void @llvm.lifetime.start.p0(i64 4, ptr %3) #5
  store i32 0, ptr %3, align 4, !tbaa !4
  call void @llvm.lifetime.start.p0(i64 4, ptr %4) #5
  call void @llvm.lifetime.start.p0(i64 16, ptr %5) #5
  call void @llvm.lifetime.start.p0(i64 8, ptr %6) #5
  %7 = load i32, ptr %2, align 4, !tbaa !4
  %8 = sext i32 %7 to i64
  %9 = getelementptr inbounds [7 x %struct.ack_test_case], ptr @ack_cases, i64 0, i64 %8
  store ptr %9, ptr %6, align 8, !tbaa !25
  %10 = load ptr, ptr %6, align 8, !tbaa !25
  %11 = getelementptr inbounds nuw %struct.ack_test_case, ptr %10, i32 0, i32 0
  %12 = load ptr, ptr %11, align 8, !tbaa !27
  %13 = load ptr, ptr %6, align 8, !tbaa !25
  %14 = getelementptr inbounds nuw %struct.ack_test_case, ptr %13, i32 0, i32 1
  %15 = load i64, ptr %14, align 8, !tbaa !29
  %16 = call i32 @PACKET_buf_init(ptr noundef %5, ptr noundef %12, i64 noundef %15)
  %17 = call i32 @test_int_eq(ptr noundef @.str.5, i32 noundef 1435, ptr noundef @.str.160, ptr noundef @.str.8, i32 noundef %16, i32 noundef 1)
  %18 = icmp ne i32 %17, 0
  br i1 %18, label %20, label %19

19:                                               ; preds = %1
  br label %49

20:                                               ; preds = %1
  %21 = load ptr, ptr %6, align 8, !tbaa !25
  %22 = getelementptr inbounds nuw %struct.ack_test_case, ptr %21, i32 0, i32 2
  %23 = load ptr, ptr %22, align 8, !tbaa !30
  %24 = call i32 %23(ptr noundef %5)
  store i32 %24, ptr %4, align 4, !tbaa !4
  %25 = load ptr, ptr %6, align 8, !tbaa !25
  %26 = getelementptr inbounds nuw %struct.ack_test_case, ptr %25, i32 0, i32 3
  %27 = load i32, ptr %26, align 8, !tbaa !31
  %28 = icmp ne i32 %27, 0
  br i1 %28, label %29, label %35

29:                                               ; preds = %20
  %30 = load i32, ptr %4, align 4, !tbaa !4
  %31 = call i32 @test_int_eq(ptr noundef @.str.5, i32 noundef 1440, ptr noundef @.str.161, ptr noundef @.str.68, i32 noundef %30, i32 noundef 0)
  %32 = icmp ne i32 %31, 0
  br i1 %32, label %34, label %33

33:                                               ; preds = %29
  br label %49

34:                                               ; preds = %29
  br label %48

35:                                               ; preds = %20
  %36 = load i32, ptr %4, align 4, !tbaa !4
  %37 = call i32 @test_int_eq(ptr noundef @.str.5, i32 noundef 1443, ptr noundef @.str.161, ptr noundef @.str.8, i32 noundef %36, i32 noundef 1)
  %38 = icmp ne i32 %37, 0
  br i1 %38, label %40, label %39

39:                                               ; preds = %35
  br label %49

40:                                               ; preds = %35
  %41 = call i64 @PACKET_remaining(ptr noundef %5)
  %42 = icmp ne i64 %41, 0
  %43 = zext i1 %42 to i32
  %44 = call i32 @test_false(ptr noundef @.str.5, i32 noundef 1446, ptr noundef @.str.15, i32 noundef %43)
  %45 = icmp ne i32 %44, 0
  br i1 %45, label %47, label %46

46:                                               ; preds = %40
  br label %49

47:                                               ; preds = %40
  br label %48

48:                                               ; preds = %47, %34
  store i32 1, ptr %3, align 4, !tbaa !4
  br label %49

49:                                               ; preds = %48, %46, %39, %33, %19
  %50 = load i32, ptr %3, align 4, !tbaa !4
  call void @llvm.lifetime.end.p0(i64 8, ptr %6) #5
  call void @llvm.lifetime.end.p0(i64 16, ptr %5) #5
  call void @llvm.lifetime.end.p0(i64 4, ptr %4) #5
  call void @llvm.lifetime.end.p0(i64 4, ptr %3) #5
  ret i32 %50
}