; Function Attrs: nounwind uwtable
define internal range(i32 0, 2) i32 @test_wire_ack(i32 noundef %0) #0 {
  %2 = alloca %struct.PACKET, align 8
  call void @llvm.lifetime.start.p0(i64 16, ptr nonnull %2) #4
  %3 = sext i32 %0 to i64
  %4 = getelementptr inbounds [7 x %struct.ack_test_case], ptr @ack_cases, i64 0, i64 %3
  %5 = getelementptr inbounds nuw i8, ptr %4, i64 8
  %6 = load i64, ptr %5, align 8, !tbaa !22
  %7 = icmp slt i64 %6, 0
  br i1 %7, label %PACKET_buf_init.exit, label %8

8:                                                ; preds = %1
  %9 = load ptr, ptr %4, align 16, !tbaa !25
  store ptr %9, ptr %2, align 8, !tbaa !16
  %10 = getelementptr inbounds nuw i8, ptr %2, i64 8
  store i64 %6, ptr %10, align 8, !tbaa !18
  br label %PACKET_buf_init.exit

PACKET_buf_init.exit:                             ; preds = %1, %8
  %.0.i = phi i32 [ 1, %8 ], [ 0, %1 ]
  %11 = tail call i32 @test_int_eq(ptr noundef nonnull @.str.5, i32 noundef 1435, ptr noundef nonnull @.str.160, ptr noundef nonnull @.str.8, i32 noundef %.0.i, i32 noundef 1) #4
  %.not = icmp eq i32 %11, 0
  br i1 %.not, label %26, label %12

12:                                               ; preds = %PACKET_buf_init.exit
  %13 = call i32 @ack_generic_decode(ptr noundef nonnull %2) #4
  %14 = getelementptr inbounds nuw i8, ptr %4, i64 24
  %15 = load i32, ptr %14, align 8, !tbaa !26
  %.not7 = icmp eq i32 %15, 0
  br i1 %.not7, label %18, label %16

16:                                               ; preds = %12
  %17 = call i32 @test_int_eq(ptr noundef nonnull @.str.5, i32 noundef 1440, ptr noundef nonnull @.str.161, ptr noundef nonnull @.str.68, i32 noundef %13, i32 noundef 0) #4
  %.not10 = icmp eq i32 %17, 0
  br i1 %.not10, label %26, label %25

18:                                               ; preds = %12
  %19 = call i32 @test_int_eq(ptr noundef nonnull @.str.5, i32 noundef 1443, ptr noundef nonnull @.str.161, ptr noundef nonnull @.str.8, i32 noundef %13, i32 noundef 1) #4
  %.not8 = icmp eq i32 %19, 0
  br i1 %.not8, label %26, label %20

20:                                               ; preds = %18
  %21 = getelementptr inbounds nuw i8, ptr %2, i64 8
  %.val = load i64, ptr %21, align 8, !tbaa !18
  %22 = icmp ne i64 %.val, 0
  %23 = zext i1 %22 to i32
  %24 = call i32 @test_false(ptr noundef nonnull @.str.5, i32 noundef 1446, ptr noundef nonnull @.str.15, i32 noundef %23) #4
  %.not9 = icmp eq i32 %24, 0
  br i1 %.not9, label %26, label %25

25:                                               ; preds = %20, %16
  br label %26

26:                                               ; preds = %20, %18, %16, %PACKET_buf_init.exit, %25
  %.0 = phi i32 [ 1, %25 ], [ 0, %16 ], [ 0, %20 ], [ 0, %18 ], [ 0, %PACKET_buf_init.exit ]
  call void @llvm.lifetime.end.p0(i64 16, ptr nonnull %2) #4
  ret i32 %.0
}